; Function Attrs: mustprogress nofree norecurse nosync nounwind willreturn memory(readwrite, inaccessiblemem: none) uwtable
define noundef i32 @H5C_load_cache_image_on_next_protect(ptr noundef readonly captures(none) %0, i64 noundef %1, i64 noundef %2, i1 noundef zeroext %3) local_unnamed_addr #7 {
  %5 = load i8, ptr @H5C_init_g, align 1, !tbaa !3, !range !7, !noundef !8
  %6 = trunc nuw i8 %5 to i1
  %7 = load i8, ptr @H5_libterm_g, align 1, !range !7
  %8 = trunc nuw i8 %7 to i1
  %9 = xor i1 %8, true
  %10 = select i1 %6, i1 true, i1 %9
  br i1 %10, label %11, label %21, !prof !9

11:                                               ; preds = %4
  %12 = zext i1 %3 to i8
  %13 = getelementptr inbounds nuw i8, ptr %0, i64 16
  %14 = load ptr, ptr %13, align 8, !tbaa !25
  %15 = getelementptr inbounds nuw i8, ptr %14, i64 112
  %16 = load ptr, ptr %15, align 8, !tbaa !31
  %17 = getelementptr inbounds nuw i8, ptr %16, i64 527640
  store i64 %1, ptr %17, align 8, !tbaa !81
  %18 = getelementptr inbounds nuw i8, ptr %16, i64 527648
  store i64 %2, ptr %18, align 8, !tbaa !51
  %19 = getelementptr inbounds nuw i8, ptr %16, i64 527633
  store i8 1, ptr %19, align 1, !tbaa !10
  %20 = getelementptr inbounds nuw i8, ptr %16, i64 527635
  store i8 %12, ptr %20, align 1, !tbaa !85
  br label %21

21:                                               ; preds = %11, %4
  ret i32 0
}